; ModuleID = '32/1961.c'
source_filename = "32/1961.c"
target datalayout = "e-m:e-p270:32:32-p271:32:32-p272:64:64-i64:64-f80:128-n8:16:32:64-S128"
target triple = "x86_64-pc-linux-gnu"

@.str = private unnamed_addr constant [3 x i8] c"%d\00", align 1
@.str.1 = private unnamed_addr constant [4 x i8] c"%s\0A\00", align 1
@.str.2 = private unnamed_addr constant [5 x i8] c"%s%s\00", align 1

; Function Attrs: noinline nounwind uwtable
define dso_local i32 @main() #0 {
  %1 = alloca i32, align 4
  %2 = alloca i32, align 4
  %3 = alloca i32, align 4
  %4 = alloca [100 x [100 x i8]], align 16
  store i32 0, i32* %1, align 4
  %5 = bitcast [100 x [100 x i8]]* %4 to i8*
  call void @llvm.memset.p0i8.i64(i8* align 16 %5, i8 0, i64 10000, i1 false)
  %6 = call i32 (i8*, ...) @__isoc99_scanf(i8* getelementptr inbounds ([3 x i8], [3 x i8]* @.str, i64 0, i64 0), i32* %2)
  store i32 0, i32* %3, align 4
  br label %7

7:                                                ; preds = %17, %0
  %8 = load i32, i32* %3, align 4
  %9 = load i32, i32* %2, align 4
  %10 = icmp slt i32 %8, %9
  br i1 %10, label %11, label %20

11:                                               ; preds = %7
  %12 = load i32, i32* %3, align 4
  %13 = sext i32 %12 to i64
  %14 = getelementptr inbounds [100 x [100 x i8]], [100 x [100 x i8]]* %4, i64 0, i64 %13
  %15 = getelementptr inbounds [100 x i8], [100 x i8]* %14, i64 0, i64 0
  %16 = call i32 @minus(i8* %15)
  br label %17

17:                                               ; preds = %11
  %18 = load i32, i32* %3, align 4
  %19 = add nsw i32 %18, 1
  store i32 %19, i32* %3, align 4
  br label %7

20:                                               ; preds = %7
  store i32 0, i32* %3, align 4
  br label %21

21:                                               ; preds = %31, %20
  %22 = load i32, i32* %3, align 4
  %23 = load i32, i32* %2, align 4
  %24 = icmp slt i32 %22, %23
  br i1 %24, label %25, label %34

25:                                               ; preds = %21
  %26 = load i32, i32* %3, align 4
  %27 = sext i32 %26 to i64
  %28 = getelementptr inbounds [100 x [100 x i8]], [100 x [100 x i8]]* %4, i64 0, i64 %27
  %29 = getelementptr inbounds [100 x i8], [100 x i8]* %28, i64 0, i64 0
  %30 = call i32 (i8*, ...) @printf(i8* getelementptr inbounds ([4 x i8], [4 x i8]* @.str.1, i64 0, i64 0), i8* %29)
  br label %31

31:                                               ; preds = %25
  %32 = load i32, i32* %3, align 4
  %33 = add nsw i32 %32, 1
  store i32 %33, i32* %3, align 4
  br label %21

34:                                               ; preds = %21
  ret i32 0
}

; Function Attrs: argmemonly nounwind willreturn
declare void @llvm.memset.p0i8.i64(i8* nocapture writeonly, i8, i64, i1 immarg) #1

declare dso_local i32 @__isoc99_scanf(i8*, ...) #2

; Function Attrs: noinline nounwind uwtable
define dso_local i32 @minus(i8* %0) #0 {
  %2 = alloca i8*, align 8
  %3 = alloca i32, align 4
  %4 = alloca i32, align 4
  %5 = alloca i32, align 4
  %6 = alloca [2 x [100 x i8]], align 16
  store i8* %0, i8** %2, align 8
  %7 = bitcast [2 x [100 x i8]]* %6 to i8*
  call void @llvm.memset.p0i8.i64(i8* align 16 %7, i8 0, i64 200, i1 false)
  %8 = getelementptr inbounds [2 x [100 x i8]], [2 x [100 x i8]]* %6, i64 0, i64 0
  %9 = getelementptr inbounds [100 x i8], [100 x i8]* %8, i64 0, i64 0
  %10 = getelementptr inbounds [2 x [100 x i8]], [2 x [100 x i8]]* %6, i64 0, i64 1
  %11 = getelementptr inbounds [100 x i8], [100 x i8]* %10, i64 0, i64 0
  %12 = call i32 (i8*, ...) @__isoc99_scanf(i8* getelementptr inbounds ([5 x i8], [5 x i8]* @.str.2, i64 0, i64 0), i8* %9, i8* %11)
  %13 = getelementptr inbounds [2 x [100 x i8]], [2 x [100 x i8]]* %6, i64 0, i64 0
  %14 = getelementptr inbounds [100 x i8], [100 x i8]* %13, i64 0, i64 0
  %15 = call i64 @strlen(i8* %14) #4
  %16 = trunc i64 %15 to i32
  store i32 %16, i32* %3, align 4
  %17 = getelementptr inbounds [2 x [100 x i8]], [2 x [100 x i8]]* %6, i64 0, i64 1
  %18 = getelementptr inbounds [100 x i8], [100 x i8]* %17, i64 0, i64 0
  %19 = call i64 @strlen(i8* %18) #4
  %20 = trunc i64 %19 to i32
  store i32 %20, i32* %4, align 4
  %21 = load i32, i32* %3, align 4
  %22 = sub nsw i32 %21, 1
  store i32 %22, i32* %5, align 4
  br label %23

23:                                               ; preds = %110, %1
  %24 = load i32, i32* %5, align 4
  %25 = load i32, i32* %3, align 4
  %26 = load i32, i32* %4, align 4
  %27 = sub nsw i32 %25, %26
  %28 = icmp sge i32 %24, %27
  br i1 %28, label %29, label %113

29:                                               ; preds = %23
  %30 = getelementptr inbounds [2 x [100 x i8]], [2 x [100 x i8]]* %6, i64 0, i64 0
  %31 = load i32, i32* %5, align 4
  %32 = sext i32 %31 to i64
  %33 = getelementptr inbounds [100 x i8], [100 x i8]* %30, i64 0, i64 %32
  %34 = load i8, i8* %33, align 1
  %35 = sext i8 %34 to i32
  %36 = getelementptr inbounds [2 x [100 x i8]], [2 x [100 x i8]]* %6, i64 0, i64 1
  %37 = load i32, i32* %5, align 4
  %38 = load i32, i32* %3, align 4
  %39 = sub nsw i32 %37, %38
  %40 = load i32, i32* %4, align 4
  %41 = add nsw i32 %39, %40
  %42 = sext i32 %41 to i64
  %43 = getelementptr inbounds [100 x i8], [100 x i8]* %36, i64 0, i64 %42
  %44 = load i8, i8* %43, align 1
  %45 = sext i8 %44 to i32
  %46 = icmp sge i32 %35, %45
  br i1 %46, label %47, label %71

47:                                               ; preds = %29
  %48 = getelementptr inbounds [2 x [100 x i8]], [2 x [100 x i8]]* %6, i64 0, i64 0
  %49 = load i32, i32* %5, align 4
  %50 = sext i32 %49 to i64
  %51 = getelementptr inbounds [100 x i8], [100 x i8]* %48, i64 0, i64 %50
  %52 = load i8, i8* %51, align 1
  %53 = sext i8 %52 to i32
  %54 = getelementptr inbounds [2 x [100 x i8]], [2 x [100 x i8]]* %6, i64 0, i64 1
  %55 = load i32, i32* %5, align 4
  %56 = load i32, i32* %3, align 4
  %57 = sub nsw i32 %55, %56
  %58 = load i32, i32* %4, align 4
  %59 = add nsw i32 %57, %58
  %60 = sext i32 %59 to i64
  %61 = getelementptr inbounds [100 x i8], [100 x i8]* %54, i64 0, i64 %60
  %62 = load i8, i8* %61, align 1
  %63 = sext i8 %62 to i32
  %64 = sub nsw i32 %53, %63
  %65 = add nsw i32 %64, 48
  %66 = trunc i32 %65 to i8
  %67 = getelementptr inbounds [2 x [100 x i8]], [2 x [100 x i8]]* %6, i64 0, i64 0
  %68 = load i32, i32* %5, align 4
  %69 = sext i32 %68 to i64
  %70 = getelementptr inbounds [100 x i8], [100 x i8]* %67, i64 0, i64 %69
  store i8 %66, i8* %70, align 1
  br label %109

71:                                               ; preds = %29
  %72 = getelementptr inbounds [2 x [100 x i8]], [2 x [100 x i8]]* %6, i64 0, i64 0
  %73 = load i32, i32* %5, align 4
  %74 = sub nsw i32 %73, 1
  %75 = sext i32 %74 to i64
  %76 = getelementptr inbounds [100 x i8], [100 x i8]* %72, i64 0, i64 %75
  %77 = load i8, i8* %76, align 1
  %78 = sext i8 %77 to i32
  %79 = sub nsw i32 %78, 1
  %80 = trunc i32 %79 to i8
  %81 = getelementptr inbounds [2 x [100 x i8]], [2 x [100 x i8]]* %6, i64 0, i64 0
  %82 = load i32, i32* %5, align 4
  %83 = sub nsw i32 %82, 1
  %84 = sext i32 %83 to i64
  %85 = getelementptr inbounds [100 x i8], [100 x i8]* %81, i64 0, i64 %84
  store i8 %80, i8* %85, align 1
  %86 = getelementptr inbounds [2 x [100 x i8]], [2 x [100 x i8]]* %6, i64 0, i64 0
  %87 = load i32, i32* %5, align 4
  %88 = sext i32 %87 to i64
  %89 = getelementptr inbounds [100 x i8], [100 x i8]* %86, i64 0, i64 %88
  %90 = load i8, i8* %89, align 1
  %91 = sext i8 %90 to i32
  %92 = getelementptr inbounds [2 x [100 x i8]], [2 x [100 x i8]]* %6, i64 0, i64 1
  %93 = load i32, i32* %5, align 4
  %94 = load i32, i32* %3, align 4
  %95 = sub nsw i32 %93, %94
  %96 = load i32, i32* %4, align 4
  %97 = add nsw i32 %95, %96
  %98 = sext i32 %97 to i64
  %99 = getelementptr inbounds [100 x i8], [100 x i8]* %92, i64 0, i64 %98
  %100 = load i8, i8* %99, align 1
  %101 = sext i8 %100 to i32
  %102 = sub nsw i32 %91, %101
  %103 = add nsw i32 %102, 58
  %104 = trunc i32 %103 to i8
  %105 = getelementptr inbounds [2 x [100 x i8]], [2 x [100 x i8]]* %6, i64 0, i64 0
  %106 = load i32, i32* %5, align 4
  %107 = sext i32 %106 to i64
  %108 = getelementptr inbounds [100 x i8], [100 x i8]* %105, i64 0, i64 %107
  store i8 %104, i8* %108, align 1
  br label %109

109:                                              ; preds = %71, %47
  br label %110

110:                                              ; preds = %109
  %111 = load i32, i32* %5, align 4
  %112 = add nsw i32 %111, -1
  store i32 %112, i32* %5, align 4
  br label %23

113:                                              ; preds = %23
  store i32 0, i32* %5, align 4
  br label %114

114:                                              ; preds = %128, %113
  %115 = load i32, i32* %5, align 4
  %116 = load i32, i32* %3, align 4
  %117 = icmp slt i32 %115, %116
  br i1 %117, label %118, label %131

118:                                              ; preds = %114
  %119 = getelementptr inbounds [2 x [100 x i8]], [2 x [100 x i8]]* %6, i64 0, i64 0
  %120 = load i32, i32* %5, align 4
  %121 = sext i32 %120 to i64
  %122 = getelementptr inbounds [100 x i8], [100 x i8]* %119, i64 0, i64 %121
  %123 = load i8, i8* %122, align 1
  %124 = load i8*, i8** %2, align 8
  %125 = load i32, i32* %5, align 4
  %126 = sext i32 %125 to i64
  %127 = getelementptr inbounds i8, i8* %124, i64 %126
  store i8 %123, i8* %127, align 1
  br label %128

128:                                              ; preds = %118
  %129 = load i32, i32* %5, align 4
  %130 = add nsw i32 %129, 1
  store i32 %130, i32* %5, align 4
  br label %114

131:                                              ; preds = %114
  ret i32 0
}

declare dso_local i32 @printf(i8*, ...) #2

; Function Attrs: nounwind readonly
declare dso_local i64 @strlen(i8*) #3


!llvm.module.flags = !{!0}
!llvm.ident = !{!1}

!0 = !{i32 1, !"wchar_size", i32 4}
!1 = !{!"clang version 10.0.0-4ubuntu1 "}
